target datalayout = "e-m:e-p270:32:32-p271:32:32-p272:64:64-i64:64-i128:128-f80:128-n8:16:32:64-S128"
target triple = "x86_64-pc-linux-gnu"

; Function Attrs: nounwind uwtable
define dso_local ptr @LZ4IO_blockTypeID(i32 noundef %0, i32 noundef %1, ptr noundef %2) #0 {
  %4 = alloca i32, align 4
  %5 = alloca i32, align 4
  %6 = alloca ptr, align 8
  store i32 %0, ptr %4, align 4, !tbaa !9
  store i32 %1, ptr %5, align 4, !tbaa !9
  store ptr %2, ptr %6, align 8, !tbaa !31
  %7 = load ptr, ptr %6, align 8, !tbaa !31
  %8 = getelementptr inbounds i8, ptr %7, i64 0
  store i8 66, ptr %8, align 1, !tbaa !78
  %9 = load i32, ptr %4, align 4, !tbaa !9
  %10 = add i32 %9, 48
  %11 = trunc i32 %10 to i8
  %12 = load ptr, ptr %6, align 8, !tbaa !31
  %13 = getelementptr inbounds i8, ptr %12, i64 1
  store i8 %11, ptr %13, align 1, !tbaa !78
  %14 = load i32, ptr %5, align 4, !tbaa !9
  %15 = icmp eq i32 %14, 1
  %16 = select i1 %15, i32 73, i32 68
  %17 = trunc i32 %16 to i8
  %18 = load ptr, ptr %6, align 8, !tbaa !31
  %19 = getelementptr inbounds i8, ptr %18, i64 2
  store i8 %17, ptr %19, align 1, !tbaa !78
  %20 = load ptr, ptr %6, align 8, !tbaa !31
  %21 = getelementptr inbounds i8, ptr %20, i64 3
  store i8 0, ptr %21, align 1, !tbaa !78
  %22 = load ptr, ptr %6, align 8, !tbaa !31
  ret ptr %22
}