; Function Attrs: mustprogress nofree norecurse nosync nounwind willreturn memory(argmem: write) uwtable
define dso_local noundef ptr @LZ4IO_blockTypeID(i32 noundef %0, i32 noundef %1, ptr noundef returned writeonly captures(ret: address, provenance) initializes((0, 4)) %2) local_unnamed_addr #8 {
  store i8 66, ptr %2, align 1, !tbaa !40
  %4 = trunc i32 %0 to i8
  %5 = add i8 %4, 48
  %6 = getelementptr inbounds nuw i8, ptr %2, i64 1
  store i8 %5, ptr %6, align 1, !tbaa !40
  %7 = icmp eq i32 %1, 1
  %8 = select i1 %7, i8 73, i8 68
  %9 = getelementptr inbounds nuw i8, ptr %2, i64 2
  store i8 %8, ptr %9, align 1, !tbaa !40
  %10 = getelementptr inbounds nuw i8, ptr %2, i64 3
  store i8 0, ptr %10, align 1, !tbaa !40
  ret ptr %2
}